; Function Attrs: mustprogress nofree norecurse nosync nounwind willreturn memory(read, inaccessiblemem: none) uwtable
define dso_local ptr @revision_sources_peek(ptr noundef readonly captures(none) %0, ptr noundef readonly captures(none) %1) local_unnamed_addr #5 {
  %3 = getelementptr inbounds nuw i8, ptr %1, i64 64
  %4 = load i32, ptr %3, align 8, !tbaa !20
  %5 = load i32, ptr %0, align 8, !tbaa !11
  %6 = udiv i32 %4, %5
  %7 = urem i32 %4, %5
  %8 = getelementptr inbounds nuw i8, ptr %0, i64 8
  %9 = load i32, ptr %8, align 8, !tbaa !12
  %.not.i = icmp ugt i32 %9, %6
  br i1 %.not.i, label %._crit_edge40.i, label %revision_sources_at_peek.exit

._crit_edge40.i:                                  ; preds = %2
  %.phi.trans.insert.i = getelementptr inbounds nuw i8, ptr %0, i64 16
  %.pre.i = load ptr, ptr %.phi.trans.insert.i, align 8, !tbaa !13
  %10 = zext i32 %6 to i64
  %11 = getelementptr inbounds nuw ptr, ptr %.pre.i, i64 %10
  %12 = load ptr, ptr %11, align 8, !tbaa !14
  %.not35.i = icmp eq ptr %12, null
  br i1 %.not35.i, label %revision_sources_at_peek.exit, label %13

13:                                               ; preds = %._crit_edge40.i
  %14 = getelementptr inbounds nuw i8, ptr %0, i64 4
  %15 = load i32, ptr %14, align 4, !tbaa !4
  %16 = mul i32 %15, %7
  %17 = zext i32 %16 to i64
  %18 = getelementptr inbounds nuw ptr, ptr %12, i64 %17
  br label %revision_sources_at_peek.exit

revision_sources_at_peek.exit:                    ; preds = %._crit_edge40.i, %2, %13
  %.1.i = phi ptr [ %18, %13 ], [ null, %2 ], [ null, %._crit_edge40.i ]
  ret ptr %.1.i
}